; Function Attrs: mustprogress nofree norecurse nosync nounwind willreturn memory(read, inaccessiblemem: none) uwtable
define dso_local i64 @_ZNK4Luau7CodeGen3X6416IrCallWrapperX6421getNextArgumentTargetENS1_7SizeX64E(ptr noundef nonnull readonly align 8 captures(none) dereferenceable(240) %0, i8 noundef zeroext %1) local_unnamed_addr #3 align 2 {
  %3 = icmp eq i8 %1, 5
  br i1 %3, label %4, label %8

4:                                                ; preds = %2
  %5 = getelementptr inbounds nuw i8, ptr %0, i64 196
  %6 = load i32, ptr %5, align 4, !tbaa !33
  %7 = sext i32 %6 to i64
  %.sroa.59.0..sroa_idx = getelementptr inbounds nuw [4 x %"struct.Luau::CodeGen::X64::OperandX64"], ptr @_ZN4Luau7CodeGen3X64L9kXmmOrderE, i64 0, i64 %7, i32 2
  %.sroa.59.0.copyload = load i8, ptr %.sroa.59.0..sroa_idx, align 2, !tbaa !26
  br label %26

8:                                                ; preds = %2
  %9 = getelementptr inbounds nuw i8, ptr %0, i64 8
  %10 = load ptr, ptr %9, align 8, !tbaa !34
  %11 = getelementptr inbounds nuw i8, ptr %10, i64 84
  %12 = load i32, ptr %11, align 4, !tbaa !35
  %13 = icmp eq i32 %12, 0
  %_ZN4Luau7CodeGen3X64L16kWindowsGprOrderE._ZN4Luau7CodeGen3X64L16kSystemvGprOrderE = select i1 %13, ptr @_ZN4Luau7CodeGen3X64L16kWindowsGprOrderE, ptr @_ZN4Luau7CodeGen3X64L16kSystemvGprOrderE
  %14 = getelementptr inbounds nuw i8, ptr %0, i64 192
  %15 = load i32, ptr %14, align 8, !tbaa !66
  %16 = sext i32 %15 to i64
  %17 = getelementptr inbounds nuw [6 x %"struct.Luau::CodeGen::X64::OperandX64"], ptr %_ZN4Luau7CodeGen3X64L16kWindowsGprOrderE._ZN4Luau7CodeGen3X64L16kSystemvGprOrderE, i64 0, i64 %16
  %.sroa.0.0.copyload5 = load i8, ptr %17, align 4, !tbaa !31
  %.sroa.5.0..sroa_idx7 = getelementptr inbounds nuw i8, ptr %17, i64 1
  %.sroa.5.0.copyload8 = load i8, ptr %.sroa.5.0..sroa_idx7, align 1, !tbaa !26
  %.sroa.59.0..sroa_idx10 = getelementptr inbounds nuw i8, ptr %17, i64 2
  %.sroa.59.0.copyload11 = load i8, ptr %.sroa.59.0..sroa_idx10, align 2, !tbaa !26
  %.sroa.7.0..sroa_idx12 = getelementptr inbounds nuw i8, ptr %17, i64 3
  %.sroa.7.0.copyload13 = load i8, ptr %.sroa.7.0..sroa_idx12, align 1, !tbaa !26
  %.sroa.9.0..sroa_idx14 = getelementptr inbounds nuw i8, ptr %17, i64 4
  %.sroa.9.0.copyload15 = load i32, ptr %.sroa.9.0..sroa_idx14, align 4, !tbaa !67
  switch i8 %.sroa.0.0.copyload5, label %26 [
    i8 0, label %18
    i8 1, label %22
  ]

18:                                               ; preds = %8
  %19 = and i8 %1, 7
  %20 = and i8 %.sroa.59.0.copyload11, -8
  %21 = or disjoint i8 %20, %19
  br label %26

22:                                               ; preds = %8
  %23 = and i8 %1, 15
  %24 = and i8 %.sroa.7.0.copyload13, -16
  %25 = or disjoint i8 %24, %23
  br label %26

26:                                               ; preds = %18, %22, %8, %4
  %.sroa.5.0 = phi i8 [ -128, %4 ], [ %.sroa.5.0.copyload8, %8 ], [ %.sroa.5.0.copyload8, %22 ], [ %.sroa.5.0.copyload8, %18 ]
  %.sroa.0.0 = phi i8 [ 0, %4 ], [ %.sroa.0.0.copyload5, %8 ], [ 1, %22 ], [ 0, %18 ]
  %.sroa.59.0 = phi i8 [ %.sroa.59.0.copyload, %4 ], [ %.sroa.59.0.copyload11, %8 ], [ %.sroa.59.0.copyload11, %22 ], [ %21, %18 ]
  %.sroa.7.0 = phi i8 [ 16, %4 ], [ %.sroa.7.0.copyload13, %8 ], [ %25, %22 ], [ %.sroa.7.0.copyload13, %18 ]
  %.sroa.9.0 = phi i32 [ 0, %4 ], [ %.sroa.9.0.copyload15, %8 ], [ %.sroa.9.0.copyload15, %22 ], [ %.sroa.9.0.copyload15, %18 ]
  %.sroa.9.0.insert.ext = zext i32 %.sroa.9.0 to i64
  %.sroa.9.0.insert.shift = shl nuw i64 %.sroa.9.0.insert.ext, 32
  %.sroa.7.0.insert.ext = zext i8 %.sroa.7.0 to i64
  %.sroa.7.0.insert.shift = shl nuw nsw i64 %.sroa.7.0.insert.ext, 24
  %.sroa.7.0.insert.insert = or disjoint i64 %.sroa.9.0.insert.shift, %.sroa.7.0.insert.shift
  %.sroa.59.0.insert.ext = zext i8 %.sroa.59.0 to i64
  %.sroa.59.0.insert.shift = shl nuw nsw i64 %.sroa.59.0.insert.ext, 16
  %.sroa.59.0.insert.insert = or disjoint i64 %.sroa.7.0.insert.insert, %.sroa.59.0.insert.shift
  %.sroa.5.0.insert.ext = zext i8 %.sroa.5.0 to i64
  %.sroa.5.0.insert.shift = shl nuw nsw i64 %.sroa.5.0.insert.ext, 8
  %.sroa.5.0.insert.insert = or disjoint i64 %.sroa.59.0.insert.insert, %.sroa.5.0.insert.shift
  %.sroa.0.0.insert.ext = zext i8 %.sroa.0.0 to i64
  %.sroa.0.0.insert.insert = or disjoint i64 %.sroa.5.0.insert.insert, %.sroa.0.0.insert.ext
  ret i64 %.sroa.0.0.insert.insert
}